target datalayout = "e-m:e-p270:32:32-p271:32:32-p272:64:64-i64:64-i128:128-f80:128-n8:16:32:64-S128"
target triple = "x86_64-pc-linux-gnu"

%struct.Ssw_RarPars_t_ = type { i32, i32, i32, i32, i32, i32, i32, i32, i32, i32, i32, i32, i32, i32, i32, i32, i32, i32, i32, ptr, ptr }
%struct.Ssw_RarMan_t_ = type { ptr, i32, i32, ptr, ptr, ptr, ptr, ptr, ptr, ptr, ptr, ptr, ptr, i32, i32, ptr }
%struct.Aig_Man_t_ = type { ptr, ptr, ptr, ptr, ptr, ptr, ptr, %struct.Aig_Obj_t_, i32, i32, i32, i32, i32, i32, [7 x i32], i32, ptr, i32, ptr, i32, ptr, i32, i32, i32, ptr, i32, i32, i32, i32, i32, ptr, ptr, i32, ptr, ptr, i32, ptr, ptr, i32, i32, i32, ptr, ptr, ptr, ptr, ptr, ptr, ptr, ptr, ptr, ptr, ptr, ptr, ptr, ptr, i32, ptr, ptr, ptr, ptr, i32, i64, i64, i64, ptr, ptr }
%struct.Aig_Obj_t_ = type { %union.anon, ptr, ptr, i64, i32, i32, %union.anon.0 }
%union.anon = type { ptr }
%union.anon.0 = type { ptr }
%struct.Vec_Ptr_t_ = type { i32, i32, ptr }

; Function Attrs: inlinehint nounwind uwtable
define internal ptr @Ssw_RarObjSim(ptr noundef %0, i32 noundef %1) #4 {
  %3 = alloca ptr, align 8
  %4 = alloca i32, align 4
  store ptr %0, ptr %3, align 8, !tbaa !27
  store i32 %1, ptr %4, align 4, !tbaa !24
  %5 = load ptr, ptr %3, align 8, !tbaa !27
  %6 = getelementptr inbounds nuw %struct.Ssw_RarMan_t_, ptr %5, i32 0, i32 6
  %7 = load ptr, ptr %6, align 8, !tbaa !59
  %8 = load ptr, ptr %3, align 8, !tbaa !27
  %9 = getelementptr inbounds nuw %struct.Ssw_RarMan_t_, ptr %8, i32 0, i32 0
  %10 = load ptr, ptr %9, align 8, !tbaa !49
  %11 = getelementptr inbounds nuw %struct.Ssw_RarPars_t_, ptr %10, i32 0, i32 1
  %12 = load i32, ptr %11, align 4, !tbaa !12
  %13 = load i32, ptr %4, align 4, !tbaa !24
  %14 = mul nsw i32 %12, %13
  %15 = sext i32 %14 to i64
  %16 = getelementptr inbounds i64, ptr %7, i64 %15
  ret ptr %16
}

; Function Attrs: inlinehint nounwind uwtable
define internal i32 @Aig_ObjId(ptr noundef %0) #4 {
  %2 = alloca ptr, align 8
  store ptr %0, ptr %2, align 8, !tbaa !47
  %3 = load ptr, ptr %2, align 8, !tbaa !47
  %4 = getelementptr inbounds nuw %struct.Aig_Obj_t_, ptr %3, i32 0, i32 5
  %5 = load i32, ptr %4, align 4, !tbaa !60
  ret i32 %5
}

; Function Attrs: inlinehint nounwind uwtable
define internal ptr @Vec_PtrEntry(ptr noundef %0, i32 noundef %1) #4 {
  %3 = alloca ptr, align 8
  %4 = alloca i32, align 4
  store ptr %0, ptr %3, align 8, !tbaa !55
  store i32 %1, ptr %4, align 4, !tbaa !24
  %5 = load ptr, ptr %3, align 8, !tbaa !55
  %6 = getelementptr inbounds nuw %struct.Vec_Ptr_t_, ptr %5, i32 0, i32 2
  %7 = load ptr, ptr %6, align 8, !tbaa !56
  %8 = load i32, ptr %4, align 4, !tbaa !24
  %9 = sext i32 %8 to i64
  %10 = getelementptr inbounds ptr, ptr %7, i64 %9
  %11 = load ptr, ptr %10, align 8, !tbaa !58
  ret ptr %11
}

; Function Attrs: inlinehint nounwind uwtable
define internal i32 @Saig_ManPiNum(ptr noundef %0) #4 {
  %2 = alloca ptr, align 8
  store ptr %0, ptr %2, align 8, !tbaa !53
  %3 = load ptr, ptr %2, align 8, !tbaa !53
  %4 = getelementptr inbounds nuw %struct.Aig_Man_t_, ptr %3, i32 0, i32 9
  %5 = load i32, ptr %4, align 4, !tbaa !54
  ret i32 %5
}

; Function Attrs: nounwind uwtable
define void @Ssw_RarManAssingRandomPis(ptr noundef %0) #0 {
  %2 = alloca ptr, align 8
  %3 = alloca ptr, align 8
  %4 = alloca ptr, align 8
  %5 = alloca i32, align 4
  %6 = alloca i32, align 4
  store ptr %0, ptr %2, align 8, !tbaa !27
  call void @llvm.lifetime.start.p0(i64 8, ptr %3) #11
  call void @llvm.lifetime.start.p0(i64 8, ptr %4) #11
  call void @llvm.lifetime.start.p0(i64 4, ptr %5) #11
  call void @llvm.lifetime.start.p0(i64 4, ptr %6) #11
  store i32 0, ptr %6, align 4, !tbaa !24
  br label %7

7:                                                ; preds = %59, %1
  %8 = load i32, ptr %6, align 4, !tbaa !24
  %9 = load ptr, ptr %2, align 8, !tbaa !27
  %10 = getelementptr inbounds nuw %struct.Ssw_RarMan_t_, ptr %9, i32 0, i32 3
  %11 = load ptr, ptr %10, align 8, !tbaa !29
  %12 = call i32 @Saig_ManPiNum(ptr noundef %11)
  %13 = icmp slt i32 %8, %12
  br i1 %13, label %14, label %22

14:                                               ; preds = %7
  %15 = load ptr, ptr %2, align 8, !tbaa !27
  %16 = getelementptr inbounds nuw %struct.Ssw_RarMan_t_, ptr %15, i32 0, i32 3
  %17 = load ptr, ptr %16, align 8, !tbaa !29
  %18 = getelementptr inbounds nuw %struct.Aig_Man_t_, ptr %17, i32 0, i32 2
  %19 = load ptr, ptr %18, align 8, !tbaa !38
  %20 = load i32, ptr %6, align 4, !tbaa !24
  %21 = call ptr @Vec_PtrEntry(ptr noundef %19, i32 noundef %20)
  store ptr %21, ptr %4, align 8, !tbaa !47
  br label %22

22:                                               ; preds = %14, %7
  %23 = phi i1 [ false, %7 ], [ true, %14 ]
  br i1 %23, label %24, label %62

24:                                               ; preds = %22
  %25 = load ptr, ptr %2, align 8, !tbaa !27
  %26 = load ptr, ptr %4, align 8, !tbaa !47
  %27 = call i32 @Aig_ObjId(ptr noundef %26)
  %28 = call ptr @Ssw_RarObjSim(ptr noundef %25, i32 noundef %27)
  store ptr %28, ptr %3, align 8, !tbaa !48
  store i32 0, ptr %5, align 4, !tbaa !24
  br label %29

29:                                               ; preds = %43, %24
  %30 = load i32, ptr %5, align 4, !tbaa !24
  %31 = load ptr, ptr %2, align 8, !tbaa !27
  %32 = getelementptr inbounds nuw %struct.Ssw_RarMan_t_, ptr %31, i32 0, i32 0
  %33 = load ptr, ptr %32, align 8, !tbaa !49
  %34 = getelementptr inbounds nuw %struct.Ssw_RarPars_t_, ptr %33, i32 0, i32 1
  %35 = load i32, ptr %34, align 4, !tbaa !12
  %36 = icmp slt i32 %30, %35
  br i1 %36, label %37, label %46

37:                                               ; preds = %29
  %38 = call i64 @Aig_ManRandom64(i32 noundef 0)
  %39 = load ptr, ptr %3, align 8, !tbaa !48
  %40 = load i32, ptr %5, align 4, !tbaa !24
  %41 = sext i32 %40 to i64
  %42 = getelementptr inbounds i64, ptr %39, i64 %41
  store i64 %38, ptr %42, align 8, !tbaa !50
  br label %43

43:                                               ; preds = %37
  %44 = load i32, ptr %5, align 4, !tbaa !24
  %45 = add nsw i32 %44, 1
  store i32 %45, ptr %5, align 4, !tbaa !24
  br label %29, !llvm.loop !51

46:                                               ; preds = %29
  %47 = load ptr, ptr %3, align 8, !tbaa !48
  %48 = getelementptr inbounds i64, ptr %47, i64 0
  %49 = load i64, ptr %48, align 8, !tbaa !50
  %50 = shl i64 %49, 4
  %51 = load i32, ptr %6, align 4, !tbaa !24
  %52 = and i32 %51, 1
  %53 = icmp ne i32 %52, 0
  %54 = select i1 %53, i32 10, i32 12
  %55 = sext i32 %54 to i64
  %56 = or i64 %50, %55
  %57 = load ptr, ptr %3, align 8, !tbaa !48
  %58 = getelementptr inbounds i64, ptr %57, i64 0
  store i64 %56, ptr %58, align 8, !tbaa !50
  br label %59

59:                                               ; preds = %46
  %60 = load i32, ptr %6, align 4, !tbaa !24
  %61 = add nsw i32 %60, 1
  store i32 %61, ptr %6, align 4, !tbaa !24
  br label %7, !llvm.loop !52

62:                                               ; preds = %22
  call void @llvm.lifetime.end.p0(i64 4, ptr %6) #11
  call void @llvm.lifetime.end.p0(i64 4, ptr %5) #11
  call void @llvm.lifetime.end.p0(i64 8, ptr %4) #11
  call void @llvm.lifetime.end.p0(i64 8, ptr %3) #11
  ret void
}