; Function Attrs: nounwind uwtable
define void @Ssw_RarManAssingRandomPis(ptr noundef readonly captures(none) %0) local_unnamed_addr #2 {
  %2 = getelementptr inbounds nuw i8, ptr %0, i64 16
  %3 = load ptr, ptr %2, align 8, !tbaa !14
  %4 = getelementptr i8, ptr %3, i64 108
  %.val20 = load i32, ptr %4, align 4, !tbaa !24
  %5 = icmp sgt i32 %.val20, 0
  br i1 %5, label %.lr.ph23, label %.critedge

.lr.ph23:                                         ; preds = %1
  %6 = getelementptr i8, ptr %0, i64 40
  %7 = load ptr, ptr %0, align 8, !tbaa !33
  %8 = getelementptr i8, ptr %7, i64 4
  %9 = load i32, ptr %8, align 4, !tbaa !10
  %10 = icmp sgt i32 %9, 0
  br i1 %10, label %.lr.ph23.split, label %.lr.ph23.split.us

.lr.ph23.split.us:                                ; preds = %.lr.ph23
  %.val18.us = load ptr, ptr %6, align 8, !tbaa !34
  %wide.trip.count = zext nneg i32 %.val20 to i64
  %.phi.trans.insert = getelementptr inbounds nuw i8, ptr %3, i64 16
  %.pre = load ptr, ptr %.phi.trans.insert, align 8, !tbaa !35
  %.phi.trans.insert32 = getelementptr i8, ptr %.pre, i64 8
  %.val15.us.pre = load ptr, ptr %.phi.trans.insert32, align 8, !tbaa !36
  br label %11

11:                                               ; preds = %11, %.lr.ph23.split.us
  %indvars.iv = phi i64 [ %indvars.iv.next, %11 ], [ 0, %.lr.ph23.split.us ]
  %12 = getelementptr inbounds nuw ptr, ptr %.val15.us.pre, i64 %indvars.iv
  %13 = load ptr, ptr %12, align 8, !tbaa !38
  %14 = getelementptr i8, ptr %13, i64 36
  %.val16.us = load i32, ptr %14, align 4, !tbaa !39
  %15 = mul nsw i32 %9, %.val16.us
  %16 = sext i32 %15 to i64
  %17 = getelementptr inbounds i64, ptr %.val18.us, i64 %16
  %18 = load i64, ptr %17, align 8, !tbaa !40
  %19 = shl i64 %18, 4
  %20 = and i64 %indvars.iv, 1
  %.not.us = icmp eq i64 %20, 0
  %21 = select i1 %.not.us, i64 12, i64 10
  %22 = or disjoint i64 %19, %21
  store i64 %22, ptr %17, align 8, !tbaa !40
  %indvars.iv.next = add nuw nsw i64 %indvars.iv, 1
  %exitcond.not = icmp eq i64 %indvars.iv.next, %wide.trip.count
  br i1 %exitcond.not, label %.critedge, label %11, !llvm.loop !41

.lr.ph23.split:                                   ; preds = %.lr.ph23, %._crit_edge
  %23 = phi ptr [ %43, %._crit_edge ], [ %3, %.lr.ph23 ]
  %24 = phi ptr [ %44, %._crit_edge ], [ %7, %.lr.ph23 ]
  %indvars.iv29 = phi i64 [ %indvars.iv.next30, %._crit_edge ], [ 0, %.lr.ph23 ]
  %25 = getelementptr inbounds nuw i8, ptr %23, i64 16
  %26 = load ptr, ptr %25, align 8, !tbaa !35
  %27 = getelementptr i8, ptr %26, i64 8
  %.val15 = load ptr, ptr %27, align 8, !tbaa !36
  %28 = getelementptr inbounds nuw ptr, ptr %.val15, i64 %indvars.iv29
  %29 = load ptr, ptr %28, align 8, !tbaa !38
  %30 = getelementptr i8, ptr %29, i64 36
  %.val16 = load i32, ptr %30, align 4, !tbaa !39
  %.val18 = load ptr, ptr %6, align 8, !tbaa !34
  %31 = getelementptr i8, ptr %24, i64 4
  %.val17.val = load i32, ptr %31, align 4, !tbaa !10
  %32 = mul nsw i32 %.val17.val, %.val16
  %33 = sext i32 %32 to i64
  %34 = getelementptr inbounds i64, ptr %.val18, i64 %33
  %35 = icmp sgt i32 %.val17.val, 0
  br i1 %35, label %.lr.ph, label %._crit_edge

.lr.ph:                                           ; preds = %.lr.ph23.split, %.lr.ph
  %indvars.iv26 = phi i64 [ %indvars.iv.next27, %.lr.ph ], [ 0, %.lr.ph23.split ]
  %36 = tail call i64 @Aig_ManRandom64(i32 noundef 0) #20
  %37 = getelementptr inbounds nuw i64, ptr %34, i64 %indvars.iv26
  store i64 %36, ptr %37, align 8, !tbaa !40
  %indvars.iv.next27 = add nuw nsw i64 %indvars.iv26, 1
  %38 = load ptr, ptr %0, align 8, !tbaa !33
  %39 = getelementptr inbounds nuw i8, ptr %38, i64 4
  %40 = load i32, ptr %39, align 4, !tbaa !10
  %41 = sext i32 %40 to i64
  %42 = icmp slt i64 %indvars.iv.next27, %41
  br i1 %42, label %.lr.ph, label %._crit_edge.loopexit, !llvm.loop !42

._crit_edge.loopexit:                             ; preds = %.lr.ph
  %.pre35 = load ptr, ptr %2, align 8, !tbaa !14
  br label %._crit_edge

._crit_edge:                                      ; preds = %._crit_edge.loopexit, %.lr.ph23.split
  %43 = phi ptr [ %.pre35, %._crit_edge.loopexit ], [ %23, %.lr.ph23.split ]
  %44 = phi ptr [ %38, %._crit_edge.loopexit ], [ %24, %.lr.ph23.split ]
  %45 = load i64, ptr %34, align 8, !tbaa !40
  %46 = shl i64 %45, 4
  %47 = and i64 %indvars.iv29, 1
  %.not = icmp eq i64 %47, 0
  %48 = select i1 %.not, i64 12, i64 10
  %49 = or disjoint i64 %46, %48
  store i64 %49, ptr %34, align 8, !tbaa !40
  %indvars.iv.next30 = add nuw nsw i64 %indvars.iv29, 1
  %50 = getelementptr i8, ptr %43, i64 108
  %.val = load i32, ptr %50, align 4, !tbaa !24
  %51 = sext i32 %.val to i64
  %52 = icmp slt i64 %indvars.iv.next30, %51
  br i1 %52, label %.lr.ph23.split, label %.critedge, !llvm.loop !43

.critedge:                                        ; preds = %11, %._crit_edge, %1
  ret void
}